; Function Attrs: mustprogress nofree norecurse nosync nounwind willreturn memory(read, inaccessiblemem: none) uwtable
define hidden noundef i64 @_ZN8facebook6hermes17HermesRuntimeImpl8truncateERKNS_3jsi6BigIntE(ptr nocapture nonnull readnone align 8 %this, ptr nocapture noundef nonnull readonly align 8 dereferenceable(8) %bigint) unnamed_addr #13 align 2 {
entry:
  %0 = load ptr, ptr %bigint, align 8
  %1 = getelementptr inbounds i8, ptr %0, i64 16
  %2 = load i64, ptr %1, align 8
  %and.i.i = and i64 %2, 281474976710655
  %3 = inttoptr i64 %and.i.i to ptr
  %numDigits2.i.i = getelementptr inbounds i8, ptr %3, i64 4
  %4 = load i32, ptr %numDigits2.i.i, align 4
  %cmp.i.i = icmp eq i32 %4, 0
  br i1 %cmp.i.i, label %_ZNK6hermes2vm15BigIntPrimitive21truncateToSingleDigitEv.exit, label %cond.false.i.i

cond.false.i.i:                                   ; preds = %entry
  %add.ptr.i.i.i.i = getelementptr inbounds i8, ptr %3, i64 8
  %5 = load i64, ptr %add.ptr.i.i.i.i, align 8
  br label %_ZNK6hermes2vm15BigIntPrimitive21truncateToSingleDigitEv.exit

_ZNK6hermes2vm15BigIntPrimitive21truncateToSingleDigitEv.exit: ; preds = %entry, %cond.false.i.i
  %cond.i.i = phi i64 [ %5, %cond.false.i.i ], [ 0, %entry ]
  ret i64 %cond.i.i
}